; Function Attrs: nounwind uwtable
define range(i32 0, 2) i32 @SSL_use_PrivateKey_ASN1(i32 noundef %0, ptr noundef %1, ptr noundef %2, i64 noundef %3) local_unnamed_addr #0 {
  %5 = alloca ptr, align 8
  call void @llvm.lifetime.start.p0(i64 8, ptr nonnull %5) #6
  store ptr %2, ptr %5, align 8, !tbaa !99
  %6 = getelementptr inbounds nuw i8, ptr %1, i64 8
  %7 = load ptr, ptr %6, align 8, !tbaa !81
  %8 = load ptr, ptr %7, align 8, !tbaa !82
  %9 = getelementptr inbounds nuw i8, ptr %7, i64 1152
  %10 = load ptr, ptr %9, align 8, !tbaa !96
  %11 = call ptr @d2i_PrivateKey_ex(i32 noundef %0, ptr noundef null, ptr noundef nonnull %5, i64 noundef %3, ptr noundef %8, ptr noundef %10) #6
  %12 = icmp eq ptr %11, null
  br i1 %12, label %13, label %14

13:                                               ; preds = %4
  call void @ERR_new() #6
  call void @ERR_set_debug(ptr noundef nonnull @.str, i32 noundef 231, ptr noundef nonnull @__func__.SSL_use_PrivateKey_ASN1) #6
  call void (i32, i32, ptr, ...) @ERR_set_error(i32 noundef 20, i32 noundef 524301, ptr noundef null) #6
  br label %28

14:                                               ; preds = %4
  %15 = load i32, ptr %1, align 8, !tbaa !3
  %16 = icmp eq i32 %15, 0
  br i1 %16, label %.thread15.i, label %17

17:                                               ; preds = %14
  %18 = and i32 %15, 128
  %.not.i = icmp eq i32 %18, 0
  br i1 %.not.i, label %SSL_use_PrivateKey.exit, label %19

19:                                               ; preds = %17
  %20 = call ptr @ossl_quic_obj_get0_handshake_layer(ptr noundef nonnull %1) #6
  %21 = icmp eq ptr %20, null
  br i1 %21, label %SSL_use_PrivateKey.exit, label %.thread15.i

.thread15.i:                                      ; preds = %14, %19
  %22 = phi ptr [ %20, %19 ], [ %1, %14 ]
  %23 = getelementptr inbounds nuw i8, ptr %22, i64 2176
  %24 = load ptr, ptr %23, align 8, !tbaa !15
  %25 = getelementptr inbounds nuw i8, ptr %22, i64 8
  %26 = load ptr, ptr %25, align 8, !tbaa !70
  %27 = call fastcc i32 @ssl_set_pkey(ptr noundef %24, ptr noundef nonnull %11, ptr noundef %26)
  br label %SSL_use_PrivateKey.exit

SSL_use_PrivateKey.exit:                          ; preds = %17, %19, %.thread15.i
  %.0.i = phi i32 [ %27, %.thread15.i ], [ 0, %19 ], [ 0, %17 ]
  call void @EVP_PKEY_free(ptr noundef nonnull %11) #6
  br label %28

28:                                               ; preds = %SSL_use_PrivateKey.exit, %13
  %.0 = phi i32 [ 0, %13 ], [ %.0.i, %SSL_use_PrivateKey.exit ]
  call void @llvm.lifetime.end.p0(i64 8, ptr nonnull %5) #6
  ret i32 %.0
}